; Function Attrs: nofree norecurse nosync nounwind memory(argmem: readwrite) uwtable
define internal void @blend_screen_10bit(ptr noundef readonly captures(none) %0, i64 noundef %1, ptr noundef readonly captures(none) %2, i64 noundef %3, ptr noundef writeonly captures(none) %4, i64 noundef %5, i64 noundef %6, i64 noundef %7, ptr noundef readonly captures(none) %8, ptr readnone captures(none) %9) #6 {
  %11 = getelementptr inbounds nuw i8, ptr %8, i64 8
  %12 = load double, ptr %11, align 8, !tbaa !70
  %13 = fptrunc nsz double %12 to float
  %14 = lshr i64 %5, 1
  %15 = lshr i64 %1, 1
  %16 = lshr i64 %3, 1
  %17 = icmp sgt i64 %7, 0
  %18 = icmp sgt i64 %6, 0
  %or.cond = and i1 %17, %18
  br i1 %or.cond, label %.preheader.us, label %._crit_edge40

.preheader.us:                                    ; preds = %10, %._crit_edge.us
  %indvars.iv44 = phi i64 [ %indvars.iv.next45, %._crit_edge.us ], [ 0, %10 ]
  %.03038.us = phi ptr [ %35, %._crit_edge.us ], [ %4, %10 ]
  %.03137.us = phi ptr [ %37, %._crit_edge.us ], [ %2, %10 ]
  %.03236.us = phi ptr [ %36, %._crit_edge.us ], [ %0, %10 ]
  br label %19

19:                                               ; preds = %.preheader.us, %19
  %indvars.iv = phi i64 [ 0, %.preheader.us ], [ %indvars.iv.next, %19 ]
  %20 = getelementptr inbounds nuw i16, ptr %.03236.us, i64 %indvars.iv
  %21 = load i16, ptr %20, align 2, !tbaa !85
  %22 = zext i16 %21 to i32
  %23 = uitofp i16 %21 to float
  %24 = sub nsw i32 1023, %22
  %25 = getelementptr inbounds nuw i16, ptr %.03137.us, i64 %indvars.iv
  %26 = load i16, ptr %25, align 2, !tbaa !85
  %27 = zext i16 %26 to i32
  %28 = sub nsw i32 1023, %27
  %29 = mul nsw i32 %28, %24
  %.neg.us = sdiv i32 %29, -1023
  %reass.sub = sub nsw i32 %.neg.us, %22
  %30 = add nsw i32 %reass.sub, 1023
  %31 = sitofp i32 %30 to float
  %32 = tail call nsz float @llvm.fmuladd.f32(float %31, float %13, float %23)
  %33 = fptoui float %32 to i16
  %34 = getelementptr inbounds nuw i16, ptr %.03038.us, i64 %indvars.iv
  store i16 %33, ptr %34, align 2, !tbaa !85
  %indvars.iv.next = add nuw nsw i64 %indvars.iv, 1
  %exitcond.not = icmp eq i64 %indvars.iv.next, %6
  br i1 %exitcond.not, label %._crit_edge.us, label %19, !llvm.loop !306

._crit_edge.us:                                   ; preds = %19
  %35 = getelementptr inbounds nuw i16, ptr %.03038.us, i64 %14
  %36 = getelementptr inbounds nuw i16, ptr %.03236.us, i64 %15
  %37 = getelementptr inbounds nuw i16, ptr %.03137.us, i64 %16
  %indvars.iv.next45 = add nuw nsw i64 %indvars.iv44, 1
  %exitcond47.not = icmp eq i64 %indvars.iv.next45, %7
  br i1 %exitcond47.not, label %._crit_edge40, label %.preheader.us, !llvm.loop !307

._crit_edge40:                                    ; preds = %._crit_edge.us, %10
  ret void
}